; Function Attrs: nofree nounwind uwtable
define internal fastcc noundef zeroext i1 @verify_directory(ptr noundef nonnull readonly captures(none) %0) unnamed_addr #11 {
  %2 = tail call ptr @opendir(ptr noundef nonnull %0)
  %3 = icmp ne ptr %2, null
  br i1 %3, label %4, label %6

4:                                                ; preds = %1
  %5 = tail call i32 @closedir(ptr noundef nonnull %2)
  br label %6

6:                                                ; preds = %1, %4
  ret i1 %3
}